target datalayout = "e-m:e-p270:32:32-p271:32:32-p272:64:64-i64:64-i128:128-f80:128-n8:16:32:64-S128"
target triple = "x86_64-pc-linux-gnu"

%struct._zend_phar_globals = type { %struct._zend_array, %struct._zend_array, ptr, %struct._zend_array, i32, i32, ptr, i32, i32, i32, i32, i8, i8, i8, i32, i32, i32, i32, ptr, ptr, ptr, ptr, ptr, ptr, ptr, ptr, ptr, ptr, ptr, ptr, ptr, ptr, ptr, ptr, ptr, ptr, ptr, ptr, ptr, ptr, ptr, i32, i32, ptr, i32, ptr, i32, ptr, i32, ptr, %struct._zend_array }
%struct._zend_array = type { %struct._zend_refcounted_h, %union.anon.4, i32, %union.anon.6, i32, i32, i32, i32, i64, ptr }
%struct._zend_refcounted_h = type { i32, %union.anon.3 }
%union.anon.3 = type { i32 }
%union.anon.4 = type { i32 }
%union.anon.6 = type { ptr }
%struct._zval_struct = type { %union._zend_value, %union.anon, %union.anon.2 }
%union._zend_value = type { i64 }
%union.anon = type { i32 }
%union.anon.2 = type { i32 }
%struct._phar_entry_info = type { i32, i32, i32, i32, i32, i32, %struct._phar_metadata_tracker, i32, ptr, i32, i64, i64, i64, ptr, ptr, i32, ptr, ptr, ptr, i8, i32, i16, i16 }
%struct._phar_metadata_tracker = type { %struct._zval_struct, ptr }
%struct._phar_archive_data = type { ptr, i32, ptr, i32, ptr, i32, [12 x i8], i64, i64, %struct._zend_array, %struct._zend_array, %struct._zend_array, i32, i32, i32, ptr, ptr, i32, i32, i32, ptr, %struct._phar_metadata_tracker, i32, i16 }
%struct._phar_entry_fp = type { ptr, ptr, ptr }
%struct._phar_entry_fp_info = type { i32, i64 }

@phar_globals = external global %struct._zend_phar_globals, align 8

; Function Attrs: nounwind uwtable
define internal i64 @phar_get_fp_offset(ptr noundef %0) #0 {
  %2 = alloca i64, align 8
  %3 = alloca ptr, align 8
  store ptr %0, ptr %3, align 8
  %4 = load ptr, ptr %3, align 8
  %5 = getelementptr inbounds %struct._phar_entry_info, ptr %4, i32 0, i32 22
  %6 = load i16, ptr %5, align 2
  %7 = lshr i16 %6, 8
  %8 = and i16 %7, 1
  %9 = zext i16 %8 to i32
  %10 = icmp ne i32 %9, 0
  br i1 %10, label %15, label %11

11:                                               ; preds = %1
  %12 = load ptr, ptr %3, align 8
  %13 = getelementptr inbounds %struct._phar_entry_info, ptr %12, i32 0, i32 11
  %14 = load i64, ptr %13, align 8
  store i64 %14, ptr %2, align 8
  br label %92

15:                                               ; preds = %1
  %16 = load ptr, ptr getelementptr inbounds (%struct._zend_phar_globals, ptr @phar_globals, i32 0, i32 2), align 8
  %17 = load ptr, ptr %3, align 8
  %18 = getelementptr inbounds %struct._phar_entry_info, ptr %17, i32 0, i32 17
  %19 = load ptr, ptr %18, align 8
  %20 = getelementptr inbounds %struct._phar_archive_data, ptr %19, i32 0, i32 22
  %21 = load i32, ptr %20, align 8
  %22 = zext i32 %21 to i64
  %23 = getelementptr inbounds %struct._phar_entry_fp, ptr %16, i64 %22
  %24 = getelementptr inbounds %struct._phar_entry_fp, ptr %23, i32 0, i32 2
  %25 = load ptr, ptr %24, align 8
  %26 = load ptr, ptr %3, align 8
  %27 = getelementptr inbounds %struct._phar_entry_info, ptr %26, i32 0, i32 20
  %28 = load i32, ptr %27, align 4
  %29 = zext i32 %28 to i64
  %30 = getelementptr inbounds %struct._phar_entry_fp_info, ptr %25, i64 %29
  %31 = getelementptr inbounds %struct._phar_entry_fp_info, ptr %30, i32 0, i32 0
  %32 = load i32, ptr %31, align 8
  %33 = icmp eq i32 %32, 0
  br i1 %33, label %34, label %74

34:                                               ; preds = %15
  %35 = load ptr, ptr getelementptr inbounds (%struct._zend_phar_globals, ptr @phar_globals, i32 0, i32 2), align 8
  %36 = load ptr, ptr %3, align 8
  %37 = getelementptr inbounds %struct._phar_entry_info, ptr %36, i32 0, i32 17
  %38 = load ptr, ptr %37, align 8
  %39 = getelementptr inbounds %struct._phar_archive_data, ptr %38, i32 0, i32 22
  %40 = load i32, ptr %39, align 8
  %41 = zext i32 %40 to i64
  %42 = getelementptr inbounds %struct._phar_entry_fp, ptr %35, i64 %41
  %43 = getelementptr inbounds %struct._phar_entry_fp, ptr %42, i32 0, i32 2
  %44 = load ptr, ptr %43, align 8
  %45 = load ptr, ptr %3, align 8
  %46 = getelementptr inbounds %struct._phar_entry_info, ptr %45, i32 0, i32 20
  %47 = load i32, ptr %46, align 4
  %48 = zext i32 %47 to i64
  %49 = getelementptr inbounds %struct._phar_entry_fp_info, ptr %44, i64 %48
  %50 = getelementptr inbounds %struct._phar_entry_fp_info, ptr %49, i32 0, i32 1
  %51 = load i64, ptr %50, align 8
  %52 = icmp ne i64 %51, 0
  br i1 %52, label %73, label %53

53:                                               ; preds = %34
  %54 = load ptr, ptr %3, align 8
  %55 = getelementptr inbounds %struct._phar_entry_info, ptr %54, i32 0, i32 11
  %56 = load i64, ptr %55, align 8
  %57 = load ptr, ptr getelementptr inbounds (%struct._zend_phar_globals, ptr @phar_globals, i32 0, i32 2), align 8
  %58 = load ptr, ptr %3, align 8
  %59 = getelementptr inbounds %struct._phar_entry_info, ptr %58, i32 0, i32 17
  %60 = load ptr, ptr %59, align 8
  %61 = getelementptr inbounds %struct._phar_archive_data, ptr %60, i32 0, i32 22
  %62 = load i32, ptr %61, align 8
  %63 = zext i32 %62 to i64
  %64 = getelementptr inbounds %struct._phar_entry_fp, ptr %57, i64 %63
  %65 = getelementptr inbounds %struct._phar_entry_fp, ptr %64, i32 0, i32 2
  %66 = load ptr, ptr %65, align 8
  %67 = load ptr, ptr %3, align 8
  %68 = getelementptr inbounds %struct._phar_entry_info, ptr %67, i32 0, i32 20
  %69 = load i32, ptr %68, align 4
  %70 = zext i32 %69 to i64
  %71 = getelementptr inbounds %struct._phar_entry_fp_info, ptr %66, i64 %70
  %72 = getelementptr inbounds %struct._phar_entry_fp_info, ptr %71, i32 0, i32 1
  store i64 %56, ptr %72, align 8
  br label %73

73:                                               ; preds = %53, %34
  br label %74

74:                                               ; preds = %73, %15
  %75 = load ptr, ptr getelementptr inbounds (%struct._zend_phar_globals, ptr @phar_globals, i32 0, i32 2), align 8
  %76 = load ptr, ptr %3, align 8
  %77 = getelementptr inbounds %struct._phar_entry_info, ptr %76, i32 0, i32 17
  %78 = load ptr, ptr %77, align 8
  %79 = getelementptr inbounds %struct._phar_archive_data, ptr %78, i32 0, i32 22
  %80 = load i32, ptr %79, align 8
  %81 = zext i32 %80 to i64
  %82 = getelementptr inbounds %struct._phar_entry_fp, ptr %75, i64 %81
  %83 = getelementptr inbounds %struct._phar_entry_fp, ptr %82, i32 0, i32 2
  %84 = load ptr, ptr %83, align 8
  %85 = load ptr, ptr %3, align 8
  %86 = getelementptr inbounds %struct._phar_entry_info, ptr %85, i32 0, i32 20
  %87 = load i32, ptr %86, align 4
  %88 = zext i32 %87 to i64
  %89 = getelementptr inbounds %struct._phar_entry_fp_info, ptr %84, i64 %88
  %90 = getelementptr inbounds %struct._phar_entry_fp_info, ptr %89, i32 0, i32 1
  %91 = load i64, ptr %90, align 8
  store i64 %91, ptr %2, align 8
  br label %92

92:                                               ; preds = %74, %11
  %93 = load i64, ptr %2, align 8
  ret i64 %93
}