; Function Attrs: mustprogress nofree norecurse nosync nounwind willreturn memory(readwrite, inaccessiblemem: none) uwtable
define internal fastcc i64 @phar_get_fp_offset(ptr nocapture noundef readonly %0) unnamed_addr #3 {
  %2 = getelementptr inbounds i8, ptr %0, i64 154
  %3 = load i16, ptr %2, align 2
  %4 = and i16 %3, 256
  %.not = icmp eq i16 %4, 0
  br i1 %.not, label %5, label %7

5:                                                ; preds = %1
  %6 = getelementptr inbounds i8, ptr %0, i64 80
  br label %31

7:                                                ; preds = %1
  %8 = load ptr, ptr getelementptr inbounds (%struct._zend_phar_globals, ptr @phar_globals, i64 0, i32 2), align 8
  %9 = getelementptr inbounds i8, ptr %0, i64 128
  %10 = load ptr, ptr %9, align 8
  %11 = getelementptr inbounds i8, ptr %10, i64 320
  %12 = load i32, ptr %11, align 8
  %13 = zext i32 %12 to i64
  %14 = getelementptr inbounds %struct._phar_entry_fp, ptr %8, i64 %13, i32 2
  %15 = load ptr, ptr %14, align 8
  %16 = getelementptr inbounds i8, ptr %0, i64 148
  %17 = load i32, ptr %16, align 4
  %18 = zext i32 %17 to i64
  %19 = getelementptr inbounds %struct._phar_entry_fp_info, ptr %15, i64 %18
  %20 = load i32, ptr %19, align 8
  %21 = icmp eq i32 %20, 0
  br i1 %21, label %22, label %28

22:                                               ; preds = %7
  %23 = getelementptr inbounds i8, ptr %19, i64 8
  %24 = load i64, ptr %23, align 8
  %.not11 = icmp eq i64 %24, 0
  br i1 %.not11, label %25, label %28

25:                                               ; preds = %22
  %26 = getelementptr inbounds i8, ptr %0, i64 80
  %27 = load i64, ptr %26, align 8
  store i64 %27, ptr %23, align 8
  %.pre = load ptr, ptr getelementptr inbounds (%struct._zend_phar_globals, ptr @phar_globals, i64 0, i32 2), align 8
  %.pre12 = load ptr, ptr %9, align 8
  %.phi.trans.insert = getelementptr inbounds i8, ptr %.pre12, i64 320
  %.pre13 = load i32, ptr %.phi.trans.insert, align 8
  %.phi.trans.insert14 = zext i32 %.pre13 to i64
  %.phi.trans.insert15 = getelementptr inbounds %struct._phar_entry_fp, ptr %.pre, i64 %.phi.trans.insert14, i32 2
  %.pre16 = load ptr, ptr %.phi.trans.insert15, align 8
  %.pre17 = load i32, ptr %16, align 4
  %.pre18 = zext i32 %.pre17 to i64
  br label %28

28:                                               ; preds = %22, %25, %7
  %.pre-phi19 = phi i64 [ %18, %22 ], [ %.pre18, %25 ], [ %18, %7 ]
  %29 = phi ptr [ %15, %22 ], [ %.pre16, %25 ], [ %15, %7 ]
  %30 = getelementptr inbounds %struct._phar_entry_fp_info, ptr %29, i64 %.pre-phi19, i32 1
  br label %31

31:                                               ; preds = %28, %5
  %.0.in = phi ptr [ %30, %28 ], [ %6, %5 ]
  %.0 = load i64, ptr %.0.in, align 8
  ret i64 %.0
}